target datalayout = "e-m:e-p270:32:32-p271:32:32-p272:64:64-i64:64-i128:128-f80:128-n8:16:32:64-S128"
target triple = "x86_64-pc-linux-gnu"

; Function Attrs: mustprogress nounwind uwtable
define hidden noundef zeroext i1 @_ZN19AbstractInterpreter25bytecode_should_reexecuteEN9Bytecodes4CodeE(i32 noundef %0) #1 align 2 {
  %2 = alloca i1, align 1
  %3 = alloca i32, align 4
  store i32 %0, ptr %3, align 4
  %4 = load i32, ptr %3, align 4
  switch i32 %4, label %6 [
    i32 171, label %5
    i32 170, label %5
    i32 229, label %5
    i32 228, label %5
    i32 148, label %5
    i32 149, label %5
    i32 150, label %5
    i32 151, label %5
    i32 152, label %5
    i32 198, label %5
    i32 199, label %5
    i32 167, label %5
    i32 200, label %5
    i32 153, label %5
    i32 154, label %5
    i32 155, label %5
    i32 156, label %5
    i32 157, label %5
    i32 158, label %5
    i32 159, label %5
    i32 160, label %5
    i32 161, label %5
    i32 162, label %5
    i32 163, label %5
    i32 164, label %5
    i32 165, label %5
    i32 166, label %5
    i32 180, label %5
    i32 181, label %5
    i32 178, label %5
    i32 179, label %5
    i32 83, label %5
    i32 191, label %5
  ]

5:                                                ; preds = %1, %1, %1, %1, %1, %1, %1, %1, %1, %1, %1, %1, %1, %1, %1, %1, %1, %1, %1, %1, %1, %1, %1, %1, %1, %1, %1, %1, %1, %1, %1, %1, %1
  store i1 true, ptr %2, align 1
  br label %7

6:                                                ; preds = %1
  store i1 false, ptr %2, align 1
  br label %7

7:                                                ; preds = %6, %5
  %8 = load i1, ptr %2, align 1
  ret i1 %8
}