; Function Attrs: mustprogress nofree norecurse nosync nounwind willreturn memory(none) uwtable
define hidden noundef zeroext i1 @_ZN19AbstractInterpreter25bytecode_should_reexecuteEN9Bytecodes4CodeE(i32 noundef %0) local_unnamed_addr #0 align 2 {
  switch i32 %0, label %2 [
    i32 171, label %3
    i32 170, label %3
    i32 229, label %3
    i32 228, label %3
    i32 148, label %3
    i32 149, label %3
    i32 150, label %3
    i32 151, label %3
    i32 152, label %3
    i32 198, label %3
    i32 199, label %3
    i32 167, label %3
    i32 200, label %3
    i32 153, label %3
    i32 154, label %3
    i32 155, label %3
    i32 156, label %3
    i32 157, label %3
    i32 158, label %3
    i32 159, label %3
    i32 160, label %3
    i32 161, label %3
    i32 162, label %3
    i32 163, label %3
    i32 164, label %3
    i32 165, label %3
    i32 166, label %3
    i32 180, label %3
    i32 181, label %3
    i32 178, label %3
    i32 179, label %3
    i32 83, label %3
    i32 191, label %3
  ]

2:                                                ; preds = %1
  br label %3

3:                                                ; preds = %1, %1, %1, %1, %1, %1, %1, %1, %1, %1, %1, %1, %1, %1, %1, %1, %1, %1, %1, %1, %1, %1, %1, %1, %1, %1, %1, %1, %1, %1, %1, %1, %1, %2
  %.0 = phi i1 [ false, %2 ], [ true, %1 ], [ true, %1 ], [ true, %1 ], [ true, %1 ], [ true, %1 ], [ true, %1 ], [ true, %1 ], [ true, %1 ], [ true, %1 ], [ true, %1 ], [ true, %1 ], [ true, %1 ], [ true, %1 ], [ true, %1 ], [ true, %1 ], [ true, %1 ], [ true, %1 ], [ true, %1 ], [ true, %1 ], [ true, %1 ], [ true, %1 ], [ true, %1 ], [ true, %1 ], [ true, %1 ], [ true, %1 ], [ true, %1 ], [ true, %1 ], [ true, %1 ], [ true, %1 ], [ true, %1 ], [ true, %1 ], [ true, %1 ], [ true, %1 ]
  ret i1 %.0
}